; Function Attrs: nounwind uwtable
define range(i32 -29, 1) i32 @PMIx_Argv_append_nosize(ptr noundef captures(none) %0, ptr noundef readonly captures(none) %1) local_unnamed_addr #6 {
  %3 = load ptr, ptr %0, align 8, !tbaa !16
  %4 = icmp eq ptr %3, null
  br i1 %4, label %5, label %.preheader.i.i

5:                                                ; preds = %2
  %calloc.i = tail call dereferenceable_or_null(16) ptr @calloc(i64 1, i64 16)
  store ptr %calloc.i, ptr %0, align 8, !tbaa !16
  %6 = icmp eq ptr %calloc.i, null
  br i1 %6, label %pmix_bfrops_base_tma_argv_append_nosize.exit, label %16

.preheader.i.i:                                   ; preds = %2
  %7 = load ptr, ptr %3, align 8, !tbaa !12
  %.not1.i.i = icmp eq ptr %7, null
  br i1 %.not1.i.i, label %pmix_bfrops_base_tma_argv_count.exit.i, label %.lr.ph.i.i

.lr.ph.i.i:                                       ; preds = %.preheader.i.i, %.lr.ph.i.i
  %.03.i.i = phi i32 [ %8, %.lr.ph.i.i ], [ 0, %.preheader.i.i ]
  %.062.i.i = phi ptr [ %9, %.lr.ph.i.i ], [ %3, %.preheader.i.i ]
  %8 = add nuw nsw i32 %.03.i.i, 1
  %9 = getelementptr inbounds nuw i8, ptr %.062.i.i, i64 8
  %10 = load ptr, ptr %9, align 8, !tbaa !12
  %.not.i.i = icmp eq ptr %10, null
  br i1 %.not.i.i, label %pmix_bfrops_base_tma_argv_count.exit.i, label %.lr.ph.i.i, !llvm.loop !15

pmix_bfrops_base_tma_argv_count.exit.i:           ; preds = %.lr.ph.i.i, %.preheader.i.i
  %.07.i.i = phi i32 [ 0, %.preheader.i.i ], [ %8, %.lr.ph.i.i ]
  %11 = add nsw i32 %.07.i.i, 2
  %12 = sext i32 %11 to i64
  %13 = shl nsw i64 %12, 3
  %14 = tail call noalias noundef ptr @realloc(ptr noundef nonnull %3, i64 noundef %13) #43
  store ptr %14, ptr %0, align 8, !tbaa !16
  %15 = icmp eq ptr %14, null
  br i1 %15, label %pmix_bfrops_base_tma_argv_append_nosize.exit, label %16

16:                                               ; preds = %5, %pmix_bfrops_base_tma_argv_count.exit.i
  %17 = phi ptr [ %14, %pmix_bfrops_base_tma_argv_count.exit.i ], [ %calloc.i, %5 ]
  %.0.i = phi i32 [ %.07.i.i, %pmix_bfrops_base_tma_argv_count.exit.i ], [ 0, %5 ]
  %18 = tail call noalias ptr @strdup(ptr noundef readonly %1) #44
  %19 = sext i32 %.0.i to i64
  %20 = getelementptr inbounds ptr, ptr %17, i64 %19
  store ptr %18, ptr %20, align 8, !tbaa !12
  %21 = icmp eq ptr %18, null
  br i1 %21, label %pmix_bfrops_base_tma_argv_append_nosize.exit, label %22

22:                                               ; preds = %16
  %23 = getelementptr i8, ptr %20, i64 8
  store ptr null, ptr %23, align 8, !tbaa !12
  br label %pmix_bfrops_base_tma_argv_append_nosize.exit

pmix_bfrops_base_tma_argv_append_nosize.exit:     ; preds = %5, %pmix_bfrops_base_tma_argv_count.exit.i, %16, %22
  %.022.i = phi i32 [ 0, %22 ], [ -29, %5 ], [ -29, %pmix_bfrops_base_tma_argv_count.exit.i ], [ -29, %16 ]
  ret i32 %.022.i
}